; ModuleID = 'source-C-CXX/46/2279.cpp'
source_filename = "source-C-CXX/46/2279.cpp"
target datalayout = "e-m:e-p270:32:32-p271:32:32-p272:64:64-i64:64-f80:128-n8:16:32:64-S128"
target triple = "x86_64-pc-linux-gnu"

%"class.std::ios_base::Init" = type { i8 }
%"class.std::basic_istream" = type { i32 (...)**, i64, %"class.std::basic_ios" }
%"class.std::basic_ios" = type { %"class.std::ios_base", %"class.std::basic_ostream"*, i8, i8, %"class.std::basic_streambuf"*, %"class.std::ctype"*, %"class.std::num_put"*, %"class.std::num_get"* }
%"class.std::ios_base" = type { i32 (...)**, i64, i64, i32, i32, i32, %"struct.std::ios_base::_Callback_list"*, %"struct.std::ios_base::_Words", [8 x %"struct.std::ios_base::_Words"], i32, %"struct.std::ios_base::_Words"*, %"class.std::locale" }
%"struct.std::ios_base::_Callback_list" = type { %"struct.std::ios_base::_Callback_list"*, void (i32, %"class.std::ios_base"*, i32)*, i32, i32 }
%"struct.std::ios_base::_Words" = type { i8*, i64 }
%"class.std::locale" = type { %"class.std::locale::_Impl"* }
%"class.std::locale::_Impl" = type { i32, %"class.std::locale::facet"**, i64, %"class.std::locale::facet"**, i8** }
%"class.std::locale::facet" = type <{ i32 (...)**, i32, [4 x i8] }>
%"class.std::basic_ostream" = type { i32 (...)**, %"class.std::basic_ios" }
%"class.std::basic_streambuf" = type { i32 (...)**, i8*, i8*, i8*, i8*, i8*, i8*, %"class.std::locale" }
%"class.std::ctype" = type <{ %"class.std::locale::facet.base", [4 x i8], %struct.__locale_struct*, i8, [7 x i8], i32*, i32*, i16*, i8, [256 x i8], [256 x i8], i8, [6 x i8] }>
%"class.std::locale::facet.base" = type <{ i32 (...)**, i32 }>
%struct.__locale_struct = type { [13 x %struct.__locale_data*], i16*, i32*, i32*, [13 x i8*] }
%struct.__locale_data = type opaque
%"class.std::num_put" = type { %"class.std::locale::facet.base", [4 x i8] }
%"class.std::num_get" = type { %"class.std::locale::facet.base", [4 x i8] }

@_ZStL8__ioinit = internal global %"class.std::ios_base::Init" zeroinitializer, align 1
@__dso_handle = external hidden global i8
@_ZSt3cin = external global %"class.std::basic_istream", align 8
@_ZSt4cout = external global %"class.std::basic_ostream", align 8
@.str = private unnamed_addr constant [2 x i8] c" \00", align 1
@llvm.global_ctors = appending global [1 x { i32, void ()*, i8* }] [{ i32, void ()*, i8* } { i32 65535, void ()* @_GLOBAL__sub_I_2279.cpp, i8* null }]

declare void @_ZNSt8ios_base4InitC1Ev(%"class.std::ios_base::Init"* nonnull align 1 dereferenceable(1)) unnamed_addr #0

; Function Attrs: nounwind
declare void @_ZNSt8ios_base4InitD1Ev(%"class.std::ios_base::Init"* nonnull align 1 dereferenceable(1)) unnamed_addr #1

; Function Attrs: nofree nounwind
declare i32 @__cxa_atexit(void (i8*)*, i8*, i8*) local_unnamed_addr #2

; Function Attrs: mustprogress norecurse sspstrong uwtable
define dso_local i32 @main() local_unnamed_addr #3 {
  %1 = alloca i32, align 4
  %2 = bitcast i32* %1 to i8*
  call void @llvm.lifetime.start.p0i8(i64 4, i8* nonnull %2) #7
  %3 = call nonnull align 8 dereferenceable(16) %"class.std::basic_istream"* @_ZNSirsERi(%"class.std::basic_istream"* nonnull align 8 dereferenceable(16) @_ZSt3cin, i32* nonnull align 4 dereferenceable(4) %1)
  %4 = load i32, i32* %1, align 4, !tbaa !5
  %5 = zext i32 %4 to i64
  %6 = call i8* @llvm.stacksave()
  %7 = alloca i32, i64 %5, align 16
  %8 = load i32, i32* %1, align 4, !tbaa !5
  %9 = icmp sgt i32 %8, 0
  br i1 %9, label %19, label %69

10:                                               ; preds = %19
  %11 = icmp sgt i32 %24, 1
  br i1 %11, label %12, label %39

12:                                               ; preds = %10
  %13 = lshr i32 %24, 1
  %14 = zext i32 %13 to i64
  %15 = and i64 %14, 1
  %16 = icmp eq i32 %13, 1
  br i1 %16, label %27, label %17

17:                                               ; preds = %12
  %18 = and i64 %14, 2147483646
  br label %46

19:                                               ; preds = %0, %19
  %20 = phi i64 [ %23, %19 ], [ 0, %0 ]
  %21 = getelementptr inbounds i32, i32* %7, i64 %20
  %22 = call nonnull align 8 dereferenceable(16) %"class.std::basic_istream"* @_ZNSirsERi(%"class.std::basic_istream"* nonnull align 8 dereferenceable(16) @_ZSt3cin, i32* nonnull align 4 dereferenceable(4) %21)
  %23 = add nuw nsw i64 %20, 1
  %24 = load i32, i32* %1, align 4, !tbaa !5
  %25 = sext i32 %24 to i64
  %26 = icmp slt i64 %23, %25
  br i1 %26, label %19, label %10, !llvm.loop !9

27:                                               ; preds = %46, %12
  %28 = phi i64 [ 0, %12 ], [ %66, %46 ]
  %29 = icmp eq i64 %15, 0
  br i1 %29, label %39, label %30

30:                                               ; preds = %27
  %31 = getelementptr inbounds i32, i32* %7, i64 %28
  %32 = load i32, i32* %31, align 4, !tbaa !5
  %33 = trunc i64 %28 to i32
  %34 = xor i32 %33, -1
  %35 = add i32 %24, %34
  %36 = sext i32 %35 to i64
  %37 = getelementptr inbounds i32, i32* %7, i64 %36
  %38 = load i32, i32* %37, align 4, !tbaa !5
  store i32 %38, i32* %31, align 4, !tbaa !5
  store i32 %32, i32* %37, align 4, !tbaa !5
  br label %39

39:                                               ; preds = %30, %27, %10
  %40 = icmp sgt i32 %24, 0
  br i1 %40, label %41, label %69

41:                                               ; preds = %39
  %42 = load i32, i32* %7, align 16, !tbaa !5
  %43 = call nonnull align 8 dereferenceable(8) %"class.std::basic_ostream"* @_ZNSolsEi(%"class.std::basic_ostream"* nonnull align 8 dereferenceable(8) @_ZSt4cout, i32 %42)
  %44 = load i32, i32* %1, align 4, !tbaa !5
  %45 = icmp sgt i32 %44, 1
  br i1 %45, label %70, label %69

46:                                               ; preds = %46, %17
  %47 = phi i64 [ 0, %17 ], [ %66, %46 ]
  %48 = phi i64 [ %18, %17 ], [ %67, %46 ]
  %49 = getelementptr inbounds i32, i32* %7, i64 %47
  %50 = load i32, i32* %49, align 8, !tbaa !5
  %51 = trunc i64 %47 to i32
  %52 = xor i32 %51, -1
  %53 = add i32 %24, %52
  %54 = sext i32 %53 to i64
  %55 = getelementptr inbounds i32, i32* %7, i64 %54
  %56 = load i32, i32* %55, align 4, !tbaa !5
  store i32 %56, i32* %49, align 8, !tbaa !5
  store i32 %50, i32* %55, align 4, !tbaa !5
  %57 = or i64 %47, 1
  %58 = getelementptr inbounds i32, i32* %7, i64 %57
  %59 = load i32, i32* %58, align 4, !tbaa !5
  %60 = trunc i64 %57 to i32
  %61 = xor i32 %60, -1
  %62 = add i32 %24, %61
  %63 = sext i32 %62 to i64
  %64 = getelementptr inbounds i32, i32* %7, i64 %63
  %65 = load i32, i32* %64, align 4, !tbaa !5
  store i32 %65, i32* %58, align 4, !tbaa !5
  store i32 %59, i32* %64, align 4, !tbaa !5
  %66 = add nuw nsw i64 %47, 2
  %67 = add i64 %48, -2
  %68 = icmp eq i64 %67, 0
  br i1 %68, label %27, label %46, !llvm.loop !11

69:                                               ; preds = %70, %0, %41, %39
  call void @llvm.stackrestore(i8* %6)
  call void @llvm.lifetime.end.p0i8(i64 4, i8* nonnull %2) #7
  ret i32 0

70:                                               ; preds = %41, %70
  %71 = phi i64 [ %77, %70 ], [ 1, %41 ]
  %72 = call nonnull align 8 dereferenceable(8) %"class.std::basic_ostream"* @_ZSt16__ostream_insertIcSt11char_traitsIcEERSt13basic_ostreamIT_T0_ES6_PKS3_l(%"class.std::basic_ostream"* nonnull align 8 dereferenceable(8) @_ZSt4cout, i8* nonnull getelementptr inbounds ([2 x i8], [2 x i8]* @.str, i64 0, i64 0), i64 1)
  %73 = getelementptr inbounds i32, i32* %7, i64 %71
  %74 = load i32, i32* %73, align 4, !tbaa !5
  %75 = call nonnull align 8 dereferenceable(8) %"class.std::basic_ostream"* @_ZNSolsEi(%"class.std::basic_ostream"* nonnull align 8 dereferenceable(8) @_ZSt4cout, i32 %74)
  %76 = load i32, i32* %1, align 4, !tbaa !5
  %77 = add nuw nsw i64 %71, 1
  %78 = sext i32 %76 to i64
  %79 = icmp slt i64 %77, %78
  br i1 %79, label %70, label %69, !llvm.loop !12
}

; Function Attrs: argmemonly mustprogress nofree nosync nounwind willreturn
declare void @llvm.lifetime.start.p0i8(i64 immarg, i8* nocapture) #4

declare nonnull align 8 dereferenceable(16) %"class.std::basic_istream"* @_ZNSirsERi(%"class.std::basic_istream"* nonnull align 8 dereferenceable(16), i32* nonnull align 4 dereferenceable(4)) local_unnamed_addr #0

; Function Attrs: mustprogress nofree nosync nounwind willreturn
declare i8* @llvm.stacksave() #5

; Function Attrs: argmemonly mustprogress nofree nosync nounwind willreturn
declare void @llvm.lifetime.end.p0i8(i64 immarg, i8* nocapture) #4

declare nonnull align 8 dereferenceable(8) %"class.std::basic_ostream"* @_ZNSolsEi(%"class.std::basic_ostream"* nonnull align 8 dereferenceable(8), i32) local_unnamed_addr #0

; Function Attrs: mustprogress nofree nosync nounwind willreturn
declare void @llvm.stackrestore(i8*) #5

declare nonnull align 8 dereferenceable(8) %"class.std::basic_ostream"* @_ZSt16__ostream_insertIcSt11char_traitsIcEERSt13basic_ostreamIT_T0_ES6_PKS3_l(%"class.std::basic_ostream"* nonnull align 8 dereferenceable(8), i8*, i64) local_unnamed_addr #0

; Function Attrs: sspstrong uwtable
define internal void @_GLOBAL__sub_I_2279.cpp() #6 section ".text.startup" {
  tail call void @_ZNSt8ios_base4InitC1Ev(%"class.std::ios_base::Init"* nonnull align 1 dereferenceable(1) @_ZStL8__ioinit)
  %1 = tail call i32 @__cxa_atexit(void (i8*)* bitcast (void (%"class.std::ios_base::Init"*)* @_ZNSt8ios_base4InitD1Ev to void (i8*)*), i8* getelementptr inbounds (%"class.std::ios_base::Init", %"class.std::ios_base::Init"* @_ZStL8__ioinit, i64 0, i32 0), i8* nonnull @__dso_handle) #7
  ret void
}


!llvm.module.flags = !{!0, !1, !2, !3}
!llvm.ident = !{!4}

!0 = !{i32 1, !"wchar_size", i32 4}
!1 = !{i32 7, !"PIC Level", i32 2}
!2 = !{i32 7, !"PIE Level", i32 2}
!3 = !{i32 7, !"uwtable", i32 1}
!4 = !{!"clang version 13.0.0"}
!5 = !{!6, !6, i64 0}
!6 = !{!"int", !7, i64 0}
!7 = !{!"omnipotent char", !8, i64 0}
!8 = !{!"Simple C++ TBAA"}
!9 = distinct !{!9, !10}
!10 = !{!"llvm.loop.mustprogress"}
!11 = distinct !{!11, !10}
!12 = distinct !{!12, !10, !13}
!13 = !{!"llvm.loop.peeled.count", i32 1}
